target datalayout = "e-m:e-p270:32:32-p271:32:32-p272:64:64-i64:64-i128:128-f80:128-n8:16:32:64-S128"
target triple = "x86_64-unknown-linux-gnu"

%"struct.msdfgen::BitmapConstRef.0" = type { ptr, i32, i32 }

; Function Attrs: mustprogress uwtable
define dso_local noundef zeroext i1 @_ZN7msdfgen7savePngERKNS_14BitmapConstRefIhLi3EEEPKc(ptr noundef nonnull align 8 dereferenceable(16) %bitmap, ptr noundef %filename) #0 {
entry:
  %bitmap.addr = alloca ptr, align 8
  %filename.addr = alloca ptr, align 8
  store ptr %bitmap, ptr %bitmap.addr, align 8
  store ptr %filename, ptr %filename.addr, align 8
  %0 = load ptr, ptr %bitmap.addr, align 8
  %pixels = getelementptr inbounds %"struct.msdfgen::BitmapConstRef.0", ptr %0, i32 0, i32 0
  %1 = load ptr, ptr %pixels, align 8
  %2 = load ptr, ptr %bitmap.addr, align 8
  %width = getelementptr inbounds %"struct.msdfgen::BitmapConstRef.0", ptr %2, i32 0, i32 1
  %3 = load i32, ptr %width, align 8
  %4 = load ptr, ptr %bitmap.addr, align 8
  %height = getelementptr inbounds %"struct.msdfgen::BitmapConstRef.0", ptr %4, i32 0, i32 2
  %5 = load i32, ptr %height, align 4
  %6 = load ptr, ptr %filename.addr, align 8
  %call = call noundef zeroext i1 @_ZN7msdfgenL7pngSaveEPKhiiiiPKc(ptr noundef %1, i32 noundef %3, i32 noundef %5, i32 noundef 3, i32 noundef 2, ptr noundef %6)
  ret i1 %call
}